target datalayout = "e-m:e-p270:32:32-p271:32:32-p272:64:64-i64:64-i128:128-f80:128-n8:16:32:64-S128"
target triple = "x86_64-unknown-linux-gnu"

%struct.QemuMutex = type { %union.pthread_mutex_t, i8 }
%union.pthread_mutex_t = type { %struct.__pthread_mutex_s }
%struct.__pthread_mutex_s = type { i32, i32, i32, i32, i32, i16, i16, %struct.__pthread_internal_list }
%struct.__pthread_internal_list = type { ptr, ptr }
%struct.QTailQLink = type { ptr, ptr }
%struct.CoQueue = type { %struct.anon.8 }
%struct.anon.8 = type { ptr, ptr }
%struct.MirrorBlockJob = type { %struct.BlockJob, ptr, ptr, ptr, ptr, ptr, ptr, ptr, i8, i32, i8, i32, i32, i32, i8, i8, i64, i64, i64, ptr, ptr, ptr, ptr, %struct.anon.14, i32, i64, ptr, i32, i64, %union.anon.15, i32, i8, i32, i32, i8, i32, i64, i8, i8 }
%struct.BlockJob = type { %struct.Job, i32, i64, %struct.RateLimit, ptr, %struct.Notifier, %struct.Notifier, %struct.Notifier, %struct.Notifier, %struct.Notifier, ptr }
%struct.Job = type { ptr, ptr, ptr, i8, i8, ptr, ptr, %struct.ProgressMeter, ptr, i32, i32, %struct.QEMUTimer, i32, i8, i8, i8, i8, i8, i8, i32, ptr, %struct.NotifierList, %struct.NotifierList, %struct.NotifierList, %struct.NotifierList, %struct.NotifierList, %struct.anon.11, ptr, %struct.anon.12 }
%struct.ProgressMeter = type { i64, i64, %struct.QemuMutex }
%struct.QEMUTimer = type { i64, ptr, ptr, ptr, ptr, i32, i32 }
%struct.NotifierList = type { %struct.anon.10 }
%struct.anon.10 = type { ptr }
%struct.anon.11 = type { ptr, ptr }
%struct.anon.12 = type { ptr, ptr }
%struct.RateLimit = type { %struct.QemuMutex, i64, i64, i64, i64, i64 }
%struct.Notifier = type { ptr, %struct.anon.13 }
%struct.anon.13 = type { ptr, ptr }
%struct.anon.14 = type { ptr, ptr }
%union.anon.15 = type { %struct.QTailQLink }
%struct.QEMUIOVector = type { ptr, i32, %union.anon.18 }
%union.anon.18 = type { %struct.anon.19 }
%struct.anon.19 = type { i32, %struct.iovec }
%struct.iovec = type { ptr, i64 }
%struct.MirrorOp = type { ptr, %struct.QEMUIOVector, i64, i64, ptr, i8, i8, i8, %struct.CoQueue, ptr, ptr, %union.anon.21 }
%union.anon.21 = type { %struct.QTailQLink }

@.str.15 = private unnamed_addr constant [102 x i8] c"/home/dtcxzyw/WorkSpace/Projects/compilers/llvm-opt-benchmark/bench/qemu/qemu/include/qemu/lockable.h\00", align 1
@__func__.qemu_null_lockable = private unnamed_addr constant [19 x i8] c"qemu_null_lockable\00", align 1

; Function Attrs: nounwind sspstrong uwtable
define internal i64 @range_get_last(i64 noundef %offset, i64 noundef %len) #0 {
entry:
  %offset.addr = alloca i64, align 8
  %len.addr = alloca i64, align 8
  store i64 %offset, ptr %offset.addr, align 8
  store i64 %len, ptr %len.addr, align 8
  %0 = load i64, ptr %offset.addr, align 8
  %1 = load i64, ptr %len.addr, align 8
  %add = add i64 %0, %1
  %sub = sub i64 %add, 1
  ret i64 %sub
}

; Function Attrs: nounwind sspstrong uwtable
define internal i32 @ranges_overlap(i64 noundef %first1, i64 noundef %len1, i64 noundef %first2, i64 noundef %len2) #0 {
entry:
  %first1.addr = alloca i64, align 8
  %len1.addr = alloca i64, align 8
  %first2.addr = alloca i64, align 8
  %len2.addr = alloca i64, align 8
  %last1 = alloca i64, align 8
  %last2 = alloca i64, align 8
  store i64 %first1, ptr %first1.addr, align 8
  store i64 %len1, ptr %len1.addr, align 8
  store i64 %first2, ptr %first2.addr, align 8
  store i64 %len2, ptr %len2.addr, align 8
  %0 = load i64, ptr %first1.addr, align 8
  %1 = load i64, ptr %len1.addr, align 8
  %call = call i64 @range_get_last(i64 noundef %0, i64 noundef %1)
  store i64 %call, ptr %last1, align 8
  %2 = load i64, ptr %first2.addr, align 8
  %3 = load i64, ptr %len2.addr, align 8
  %call1 = call i64 @range_get_last(i64 noundef %2, i64 noundef %3)
  store i64 %call1, ptr %last2, align 8
  %4 = load i64, ptr %last2, align 8
  %5 = load i64, ptr %first1.addr, align 8
  %cmp = icmp ult i64 %4, %5
  br i1 %cmp, label %lor.end, label %lor.rhs

lor.rhs:                                          ; preds = %entry
  %6 = load i64, ptr %last1, align 8
  %7 = load i64, ptr %first2.addr, align 8
  %cmp2 = icmp ult i64 %6, %7
  br label %lor.end

lor.end:                                          ; preds = %lor.rhs, %entry
  %8 = phi i1 [ true, %entry ], [ %cmp2, %lor.rhs ]
  %lnot = xor i1 %8, true
  %lnot.ext = zext i1 %lnot to i32
  ret i32 %lnot.ext
}

; Function Attrs: nounwind sspstrong uwtable
define internal void @mirror_wait_on_conflicts(ptr noundef %self, ptr noundef %s, i64 noundef %offset, i64 noundef %bytes) #0 {
entry:
  %x.addr.i = alloca ptr, align 8
  %self.addr = alloca ptr, align 8
  %s.addr = alloca ptr, align 8
  %offset.addr = alloca i64, align 8
  %bytes.addr = alloca i64, align 8
  %self_start_chunk = alloca i64, align 8
  %self_end_chunk = alloca i64, align 8
  %self_nb_chunks = alloca i64, align 8
  %op = alloca ptr, align 8
  %op_start_chunk = alloca i64, align 8
  %op_nb_chunks = alloca i64, align 8
  store ptr %self, ptr %self.addr, align 8
  store ptr %s, ptr %s.addr, align 8
  store i64 %offset, ptr %offset.addr, align 8
  store i64 %bytes, ptr %bytes.addr, align 8
  %0 = load i64, ptr %offset.addr, align 8
  %1 = load ptr, ptr %s.addr, align 8
  %granularity = getelementptr inbounds %struct.MirrorBlockJob, ptr %1, i32 0, i32 16
  %2 = load i64, ptr %granularity, align 8
  %div = udiv i64 %0, %2
  store i64 %div, ptr %self_start_chunk, align 8
  %3 = load i64, ptr %offset.addr, align 8
  %4 = load i64, ptr %bytes.addr, align 8
  %add = add i64 %3, %4
  %5 = load ptr, ptr %s.addr, align 8
  %granularity1 = getelementptr inbounds %struct.MirrorBlockJob, ptr %5, i32 0, i32 16
  %6 = load i64, ptr %granularity1, align 8
  %add2 = add i64 %add, %6
  %sub = sub i64 %add2, 1
  %7 = load ptr, ptr %s.addr, align 8
  %granularity3 = getelementptr inbounds %struct.MirrorBlockJob, ptr %7, i32 0, i32 16
  %8 = load i64, ptr %granularity3, align 8
  %div4 = udiv i64 %sub, %8
  store i64 %div4, ptr %self_end_chunk, align 8
  %9 = load i64, ptr %self_end_chunk, align 8
  %10 = load i64, ptr %self_start_chunk, align 8
  %sub5 = sub i64 %9, %10
  store i64 %sub5, ptr %self_nb_chunks, align 8
  br label %while.cond

while.cond:                                       ; preds = %for.end, %entry
  %11 = load ptr, ptr %s.addr, align 8
  %in_flight_bitmap = getelementptr inbounds %struct.MirrorBlockJob, ptr %11, i32 0, i32 26
  %12 = load ptr, ptr %in_flight_bitmap, align 8
  %13 = load i64, ptr %self_end_chunk, align 8
  %14 = load i64, ptr %self_start_chunk, align 8
  %call = call i64 @find_next_bit(ptr noundef %12, i64 noundef %13, i64 noundef %14)
  %15 = load i64, ptr %self_end_chunk, align 8
  %cmp = icmp ult i64 %call, %15
  br i1 %cmp, label %land.rhs, label %land.end

land.rhs:                                         ; preds = %while.cond
  %16 = load ptr, ptr %s.addr, align 8
  %ret = getelementptr inbounds %struct.MirrorBlockJob, ptr %16, i32 0, i32 30
  %17 = load i32, ptr %ret, align 8
  %cmp6 = icmp sge i32 %17, 0
  br label %land.end

land.end:                                         ; preds = %land.rhs, %while.cond
  %18 = phi i1 [ false, %while.cond ], [ %cmp6, %land.rhs ]
  br i1 %18, label %while.body, label %while.end

while.body:                                       ; preds = %land.end
  %19 = load ptr, ptr %s.addr, align 8
  %ops_in_flight = getelementptr inbounds %struct.MirrorBlockJob, ptr %19, i32 0, i32 29
  %20 = load ptr, ptr %ops_in_flight, align 8
  store ptr %20, ptr %op, align 8
  br label %for.cond

for.cond:                                         ; preds = %for.inc, %while.body
  %21 = load ptr, ptr %op, align 8
  %tobool = icmp ne ptr %21, null
  br i1 %tobool, label %for.body, label %for.end

for.body:                                         ; preds = %for.cond
  %22 = load ptr, ptr %op, align 8
  %offset7 = getelementptr inbounds %struct.MirrorOp, ptr %22, i32 0, i32 2
  %23 = load i64, ptr %offset7, align 8
  %24 = load ptr, ptr %s.addr, align 8
  %granularity8 = getelementptr inbounds %struct.MirrorBlockJob, ptr %24, i32 0, i32 16
  %25 = load i64, ptr %granularity8, align 8
  %div9 = sdiv i64 %23, %25
  store i64 %div9, ptr %op_start_chunk, align 8
  %26 = load ptr, ptr %op, align 8
  %offset10 = getelementptr inbounds %struct.MirrorOp, ptr %26, i32 0, i32 2
  %27 = load i64, ptr %offset10, align 8
  %28 = load ptr, ptr %op, align 8
  %bytes11 = getelementptr inbounds %struct.MirrorOp, ptr %28, i32 0, i32 3
  %29 = load i64, ptr %bytes11, align 8
  %add12 = add i64 %27, %29
  %30 = load ptr, ptr %s.addr, align 8
  %granularity13 = getelementptr inbounds %struct.MirrorBlockJob, ptr %30, i32 0, i32 16
  %31 = load i64, ptr %granularity13, align 8
  %add14 = add i64 %add12, %31
  %sub15 = sub i64 %add14, 1
  %32 = load ptr, ptr %s.addr, align 8
  %granularity16 = getelementptr inbounds %struct.MirrorBlockJob, ptr %32, i32 0, i32 16
  %33 = load i64, ptr %granularity16, align 8
  %div17 = udiv i64 %sub15, %33
  %34 = load i64, ptr %op_start_chunk, align 8
  %sub18 = sub i64 %div17, %34
  store i64 %sub18, ptr %op_nb_chunks, align 8
  %35 = load ptr, ptr %op, align 8
  %36 = load ptr, ptr %self.addr, align 8
  %cmp19 = icmp eq ptr %35, %36
  br i1 %cmp19, label %if.then, label %if.end

if.then:                                          ; preds = %for.body
  br label %for.inc

if.end:                                           ; preds = %for.body
  %37 = load i64, ptr %self_start_chunk, align 8
  %38 = load i64, ptr %self_nb_chunks, align 8
  %39 = load i64, ptr %op_start_chunk, align 8
  %40 = load i64, ptr %op_nb_chunks, align 8
  %call20 = call i32 @ranges_overlap(i64 noundef %37, i64 noundef %38, i64 noundef %39, i64 noundef %40)
  %tobool21 = icmp ne i32 %call20, 0
  br i1 %tobool21, label %if.then22, label %if.end35

if.then22:                                        ; preds = %if.end
  %41 = load ptr, ptr %self.addr, align 8
  %tobool23 = icmp ne ptr %41, null
  br i1 %tobool23, label %if.then24, label %if.end29

if.then24:                                        ; preds = %if.then22
  %42 = load ptr, ptr %op, align 8
  %waiting_for_op = getelementptr inbounds %struct.MirrorOp, ptr %42, i32 0, i32 10
  %43 = load ptr, ptr %waiting_for_op, align 8
  %tobool25 = icmp ne ptr %43, null
  br i1 %tobool25, label %if.then26, label %if.end27

if.then26:                                        ; preds = %if.then24
  br label %for.inc

if.end27:                                         ; preds = %if.then24
  %44 = load ptr, ptr %op, align 8
  %45 = load ptr, ptr %self.addr, align 8
  %waiting_for_op28 = getelementptr inbounds %struct.MirrorOp, ptr %45, i32 0, i32 10
  store ptr %44, ptr %waiting_for_op28, align 8
  br label %if.end29

if.end29:                                         ; preds = %if.end27, %if.then22
  %46 = load ptr, ptr %op, align 8
  %waiting_requests = getelementptr inbounds %struct.MirrorOp, ptr %46, i32 0, i32 8
  store ptr null, ptr %x.addr.i, align 8
  %47 = load ptr, ptr %x.addr.i, align 8
  %cmp.i = icmp ne ptr %47, null
  br i1 %cmp.i, label %if.then.i, label %qemu_null_lockable.exit

if.then.i:                                        ; preds = %if.end29
  call void @g_assertion_message_expr(ptr noundef null, ptr noundef @.str.15, i32 noundef 41, ptr noundef @__func__.qemu_null_lockable, ptr noundef null) #9
  unreachable

qemu_null_lockable.exit:                          ; preds = %if.end29
  call void @qemu_co_queue_wait_impl(ptr noundef %waiting_requests, ptr noundef null, i32 noundef 0)
  %48 = load ptr, ptr %self.addr, align 8
  %tobool31 = icmp ne ptr %48, null
  br i1 %tobool31, label %if.then32, label %if.end34

if.then32:                                        ; preds = %qemu_null_lockable.exit
  %49 = load ptr, ptr %self.addr, align 8
  %waiting_for_op33 = getelementptr inbounds %struct.MirrorOp, ptr %49, i32 0, i32 10
  store ptr null, ptr %waiting_for_op33, align 8
  br label %if.end34

if.end34:                                         ; preds = %if.then32, %qemu_null_lockable.exit
  br label %for.end

if.end35:                                         ; preds = %if.end
  br label %for.inc

for.inc:                                          ; preds = %if.end35, %if.then26, %if.then
  %50 = load ptr, ptr %op, align 8
  %next = getelementptr inbounds %struct.MirrorOp, ptr %50, i32 0, i32 11
  %51 = load ptr, ptr %next, align 8
  store ptr %51, ptr %op, align 8
  br label %for.cond, !llvm.loop !7

for.end:                                          ; preds = %if.end34, %for.cond
  br label %while.cond, !llvm.loop !8

while.end:                                        ; preds = %land.end
  ret void
}