; Function Attrs: nounwind sspstrong uwtable
define internal void @mirror_wait_on_conflicts(ptr noundef writeonly %self, ptr noundef readonly captures(none) %s, i64 noundef %offset, i64 noundef %bytes) #0 {
entry:
  %granularity = getelementptr inbounds nuw i8, ptr %s, i64 608
  %0 = load i64, ptr %granularity, align 8
  %div = udiv i64 %offset, %0
  %add = add i64 %offset, -1
  %add2 = add i64 %add, %bytes
  %sub = add i64 %add2, %0
  %div4 = udiv i64 %sub, %0
  %ret = getelementptr inbounds nuw i8, ptr %s, i64 736
  %in_flight_bitmap = getelementptr inbounds nuw i8, ptr %s, i64 696
  %1 = load ptr, ptr %in_flight_bitmap, align 8
  %call33 = tail call i64 @find_next_bit(ptr noundef %1, i64 noundef %div4, i64 noundef %div) #12
  %cmp34 = icmp ult i64 %call33, %div4
  br i1 %cmp34, label %land.rhs.lr.ph, label %while.end

land.rhs.lr.ph:                                   ; preds = %entry
  %ops_in_flight = getelementptr inbounds nuw i8, ptr %s, i64 720
  %sub.i.i = add i64 %div4, -1
  %tobool23.not = icmp eq ptr %self, null
  %waiting_for_op28 = getelementptr inbounds nuw i8, ptr %self, i64 104
  br i1 %tobool23.not, label %land.rhs.us, label %land.rhs

land.rhs.us:                                      ; preds = %land.rhs.lr.ph, %for.end.us
  %2 = load i32, ptr %ret, align 8
  %cmp6.us = icmp sgt i32 %2, -1
  br i1 %cmp6.us, label %while.body.us, label %while.end

while.body.us:                                    ; preds = %land.rhs.us
  %op.029.us = load ptr, ptr %ops_in_flight, align 8
  %tobool.not30.us = icmp eq ptr %op.029.us, null
  br i1 %tobool.not30.us, label %for.end.us, label %for.body.us.us.preheader

for.body.us.us.preheader:                         ; preds = %while.body.us
  %3 = load i64, ptr %granularity, align 8
  br label %if.end.us.us

for.end.us:                                       ; preds = %for.inc.us.us, %while.body.us, %if.then22.us.us
  %4 = load ptr, ptr %in_flight_bitmap, align 8
  %call.us = tail call i64 @find_next_bit(ptr noundef %4, i64 noundef %div4, i64 noundef %div) #12
  %cmp.us = icmp ult i64 %call.us, %div4
  br i1 %cmp.us, label %land.rhs.us, label %while.end, !llvm.loop !7

if.end.us.us:                                     ; preds = %for.inc.us.us, %for.body.us.us.preheader
  %op.031.us.us = phi ptr [ %op.0.us.us, %for.inc.us.us ], [ %op.029.us, %for.body.us.us.preheader ]
  %offset7.us.us = getelementptr inbounds nuw i8, ptr %op.031.us.us, i64 48
  %5 = load i64, ptr %offset7.us.us, align 8
  %bytes11.us.us = getelementptr inbounds nuw i8, ptr %op.031.us.us, i64 56
  %6 = load i64, ptr %bytes11.us.us, align 8
  %add12.us.us = add i64 %5, -1
  %add14.us.us = add i64 %add12.us.us, %6
  %sub15.us.us = add i64 %add14.us.us, %3
  %div17.us.us = udiv i64 %sub15.us.us, %3
  %div9.us.us = sdiv i64 %5, %3
  %sub.i4.i.us.us = add i64 %div17.us.us, -1
  %cmp.i.us.us = icmp ult i64 %sub.i4.i.us.us, %div
  %cmp2.i.us.us = icmp ult i64 %sub.i.i, %div9.us.us
  %.not.i.not.us.us = or i1 %cmp2.i.us.us, %cmp.i.us.us
  br i1 %.not.i.not.us.us, label %for.inc.us.us, label %if.then22.us.us

for.inc.us.us:                                    ; preds = %if.end.us.us
  %next.us.us = getelementptr inbounds nuw i8, ptr %op.031.us.us, i64 112
  %op.0.us.us = load ptr, ptr %next.us.us, align 8
  %tobool.not.us.us = icmp eq ptr %op.0.us.us, null
  br i1 %tobool.not.us.us, label %for.end.us, label %if.end.us.us, !llvm.loop !8

if.then22.us.us:                                  ; preds = %if.end.us.us
  %waiting_requests.c.us = getelementptr inbounds nuw i8, ptr %op.031.us.us, i64 80
  tail call void @qemu_co_queue_wait_impl(ptr noundef nonnull %waiting_requests.c.us, ptr noundef null, i32 noundef 0) #12
  br label %for.end.us

land.rhs:                                         ; preds = %land.rhs.lr.ph, %for.end
  %7 = load i32, ptr %ret, align 8
  %cmp6 = icmp sgt i32 %7, -1
  br i1 %cmp6, label %while.body, label %while.end

while.body:                                       ; preds = %land.rhs
  %op.029 = load ptr, ptr %ops_in_flight, align 8
  %tobool.not30 = icmp eq ptr %op.029, null
  br i1 %tobool.not30, label %for.end, label %for.body

for.body:                                         ; preds = %while.body, %for.inc
  %op.031 = phi ptr [ %op.0, %for.inc ], [ %op.029, %while.body ]
  %cmp19 = icmp eq ptr %op.031, %self
  br i1 %cmp19, label %for.inc, label %if.end

if.end:                                           ; preds = %for.body
  %offset7 = getelementptr inbounds nuw i8, ptr %op.031, i64 48
  %8 = load i64, ptr %offset7, align 8
  %bytes11 = getelementptr inbounds nuw i8, ptr %op.031, i64 56
  %9 = load i64, ptr %bytes11, align 8
  %10 = load i64, ptr %granularity, align 8
  %add12 = add i64 %8, -1
  %add14 = add i64 %add12, %9
  %sub15 = add i64 %add14, %10
  %div17 = udiv i64 %sub15, %10
  %div9 = sdiv i64 %8, %10
  %sub.i4.i = add i64 %div17, -1
  %cmp.i = icmp ult i64 %sub.i4.i, %div
  %cmp2.i = icmp ult i64 %sub.i.i, %div9
  %.not.i.not = or i1 %cmp2.i, %cmp.i
  br i1 %.not.i.not, label %for.inc, label %if.then22

if.then22:                                        ; preds = %if.end
  %waiting_for_op = getelementptr inbounds nuw i8, ptr %op.031, i64 104
  %11 = load ptr, ptr %waiting_for_op, align 8
  %tobool25.not = icmp eq ptr %11, null
  br i1 %tobool25.not, label %if.then32, label %for.inc

if.then32:                                        ; preds = %if.then22
  store ptr %op.031, ptr %waiting_for_op28, align 8
  %waiting_requests = getelementptr inbounds nuw i8, ptr %op.031, i64 80
  tail call void @qemu_co_queue_wait_impl(ptr noundef nonnull %waiting_requests, ptr noundef null, i32 noundef 0) #12
  store ptr null, ptr %waiting_for_op28, align 8
  br label %for.end

for.inc:                                          ; preds = %if.end, %if.then22, %for.body
  %next = getelementptr inbounds nuw i8, ptr %op.031, i64 112
  %op.0 = load ptr, ptr %next, align 8
  %tobool.not = icmp eq ptr %op.0, null
  br i1 %tobool.not, label %for.end, label %for.body, !llvm.loop !8

for.end:                                          ; preds = %for.inc, %while.body, %if.then32
  %12 = load ptr, ptr %in_flight_bitmap, align 8
  %call = tail call i64 @find_next_bit(ptr noundef %12, i64 noundef %div4, i64 noundef %div) #12
  %cmp = icmp ult i64 %call, %div4
  br i1 %cmp, label %land.rhs, label %while.end, !llvm.loop !7

while.end:                                        ; preds = %land.rhs, %for.end, %land.rhs.us, %for.end.us, %entry
  ret void
}